target datalayout = "e-m:e-p270:32:32-p271:32:32-p272:64:64-i64:64-i128:128-f80:128-n8:16:32:64-S128"
target triple = "x86_64-pc-linux-gnu"

%struct._zval_struct = type { %union._zend_value, %union.anon.0, %union.anon.3 }
%union._zend_value = type { i64 }
%union.anon.0 = type { i32 }
%union.anon.3 = type { i32 }
%struct._zend_array = type { %struct._zend_refcounted_h, %union.anon.5, i32, %union.anon.7, i32, i32, i32, i32, i64, ptr }
%struct._zend_refcounted_h = type { i32, %union.anon }
%union.anon = type { i32 }
%union.anon.5 = type { i32 }
%union.anon.7 = type { ptr }
%struct.zend_type = type { ptr, i32 }
%struct._zend_class_entry = type { i8, ptr, %union.anon.4, i32, i32, i32, i32, ptr, ptr, ptr, %struct._zend_array, %struct._zend_array, %struct._zend_array, ptr, ptr, ptr, ptr, ptr, ptr, ptr, ptr, ptr, ptr, ptr, ptr, ptr, ptr, ptr, ptr, ptr, ptr, ptr, %union.anon.8, ptr, ptr, ptr, ptr, i32, i32, %union.anon.9, ptr, ptr, ptr, ptr, i32, ptr, ptr, %union.anon.10 }
%union.anon.4 = type { ptr }
%union.anon.8 = type { ptr }
%union.anon.9 = type { ptr }
%union.anon.10 = type { %struct.anon.11 }
%struct.anon.11 = type { ptr, i32, i32 }
%struct._zend_property_info = type { i32, i32, ptr, ptr, ptr, ptr, %struct.zend_type }

; Function Attrs: nounwind uwtable
define internal ptr @zend_get_parent_private_property(ptr noundef %0, ptr noundef %1, ptr noundef %2) #0 {
  %4 = alloca i1, align 1
  %5 = alloca ptr, align 8
  %6 = alloca ptr, align 8
  %7 = alloca ptr, align 8
  %8 = alloca ptr, align 8
  %9 = alloca ptr, align 8
  %10 = alloca ptr, align 8
  %11 = alloca ptr, align 8
  %12 = alloca ptr, align 8
  store ptr %0, ptr %8, align 8
  store ptr %1, ptr %9, align 8
  store ptr %2, ptr %10, align 8
  %13 = load ptr, ptr %8, align 8
  %14 = load ptr, ptr %9, align 8
  %15 = icmp ne ptr %13, %14
  br i1 %15, label %16, label %66

16:                                               ; preds = %3
  %17 = load ptr, ptr %8, align 8
  %18 = icmp ne ptr %17, null
  br i1 %18, label %19, label %66

19:                                               ; preds = %16
  %20 = load ptr, ptr %9, align 8
  %21 = load ptr, ptr %8, align 8
  store ptr %20, ptr %5, align 8
  store ptr %21, ptr %6, align 8
  %22 = load ptr, ptr %5, align 8
  %23 = getelementptr inbounds %struct._zend_class_entry, ptr %22, i32 0, i32 2
  %24 = load ptr, ptr %23, align 8
  store ptr %24, ptr %5, align 8
  br label %25

25:                                               ; preds = %33, %19
  %26 = load ptr, ptr %5, align 8
  %27 = icmp ne ptr %26, null
  br i1 %27, label %28, label %37

28:                                               ; preds = %25
  %29 = load ptr, ptr %5, align 8
  %30 = load ptr, ptr %6, align 8
  %31 = icmp eq ptr %29, %30
  br i1 %31, label %32, label %33

32:                                               ; preds = %28
  store i1 true, ptr %4, align 1
  br label %38

33:                                               ; preds = %28
  %34 = load ptr, ptr %5, align 8
  %35 = getelementptr inbounds %struct._zend_class_entry, ptr %34, i32 0, i32 2
  %36 = load ptr, ptr %35, align 8
  store ptr %36, ptr %5, align 8
  br label %25

37:                                               ; preds = %25
  store i1 false, ptr %4, align 1
  br label %38

38:                                               ; preds = %37, %32
  %39 = load i1, ptr %4, align 1
  br i1 %39, label %40, label %66

40:                                               ; preds = %38
  %41 = load ptr, ptr %8, align 8
  %42 = getelementptr inbounds %struct._zend_class_entry, ptr %41, i32 0, i32 11
  %43 = load ptr, ptr %10, align 8
  %44 = call ptr @zend_hash_find(ptr noundef %42, ptr noundef %43)
  store ptr %44, ptr %11, align 8
  %45 = load ptr, ptr %11, align 8
  %46 = icmp ne ptr %45, null
  br i1 %46, label %47, label %65

47:                                               ; preds = %40
  %48 = load ptr, ptr %11, align 8
  %49 = getelementptr inbounds %struct._zval_struct, ptr %48, i32 0, i32 0
  %50 = load ptr, ptr %49, align 8
  store ptr %50, ptr %12, align 8
  %51 = load ptr, ptr %12, align 8
  %52 = getelementptr inbounds %struct._zend_property_info, ptr %51, i32 0, i32 1
  %53 = load i32, ptr %52, align 4
  %54 = and i32 %53, 4
  %55 = icmp ne i32 %54, 0
  br i1 %55, label %56, label %64

56:                                               ; preds = %47
  %57 = load ptr, ptr %12, align 8
  %58 = getelementptr inbounds %struct._zend_property_info, ptr %57, i32 0, i32 5
  %59 = load ptr, ptr %58, align 8
  %60 = load ptr, ptr %8, align 8
  %61 = icmp eq ptr %59, %60
  br i1 %61, label %62, label %64

62:                                               ; preds = %56
  %63 = load ptr, ptr %12, align 8
  store ptr %63, ptr %7, align 8
  br label %67

64:                                               ; preds = %56, %47
  br label %65

65:                                               ; preds = %64, %40
  br label %66

66:                                               ; preds = %65, %38, %16, %3
  store ptr null, ptr %7, align 8
  br label %67

67:                                               ; preds = %66, %62
  %68 = load ptr, ptr %7, align 8
  ret ptr %68
}