; Function Attrs: nounwind uwtable
define internal fastcc ptr @zend_get_parent_private_property(ptr noundef %0, ptr noundef readonly %1, ptr noundef %2) unnamed_addr #0 {
  %4 = icmp ne ptr %0, %1
  %5 = icmp ne ptr %0, null
  %or.cond = and i1 %5, %4
  br i1 %or.cond, label %.preheader, label %.critedge

.preheader:                                       ; preds = %3, %6
  %.pn = phi ptr [ %.021, %6 ], [ %1, %3 ]
  %.021.in = getelementptr inbounds i8, ptr %.pn, i64 16
  %.021 = load ptr, ptr %.021.in, align 8
  %.not.not = icmp eq ptr %.021, null
  br i1 %.not.not, label %.critedge, label %6

6:                                                ; preds = %.preheader
  %7 = icmp eq ptr %.021, %0
  br i1 %7, label %8, label %.preheader

8:                                                ; preds = %6
  %9 = getelementptr inbounds i8, ptr %0, i64 120
  %10 = tail call ptr @zend_hash_find(ptr noundef nonnull %9, ptr noundef %2) #15
  %.not = icmp eq ptr %10, null
  br i1 %.not, label %.critedge, label %11

11:                                               ; preds = %8
  %12 = load ptr, ptr %10, align 8
  %13 = getelementptr inbounds i8, ptr %12, i64 4
  %14 = load i32, ptr %13, align 4
  %15 = and i32 %14, 4
  %.not26 = icmp eq i32 %15, 0
  br i1 %.not26, label %.critedge, label %16

16:                                               ; preds = %11
  %17 = getelementptr inbounds i8, ptr %12, i64 32
  %18 = load ptr, ptr %17, align 8
  %19 = icmp eq ptr %18, %0
  br i1 %19, label %20, label %.critedge

.critedge:                                        ; preds = %.preheader, %8, %16, %11, %3
  br label %20

20:                                               ; preds = %16, %.critedge
  %.022 = phi ptr [ null, %.critedge ], [ %12, %16 ]
  ret ptr %.022
}